; Function Attrs: mustprogress nounwind uwtable
define dso_local void @_ZN5clang16OMPClausePrinter16VisitOMPAtClauseEPNS_11OMPAtClauseE(ptr noundef nonnull readonly align 8 captures(none) dereferenceable(16) %0, ptr noundef readonly captures(none) %1) local_unnamed_addr #1 align 2 {
  %3 = load ptr, ptr %0, align 8
  %4 = getelementptr inbounds nuw i8, ptr %3, i64 24
  %5 = load ptr, ptr %4, align 8
  %6 = getelementptr inbounds nuw i8, ptr %3, i64 32
  %7 = load ptr, ptr %6, align 8
  %8 = ptrtoint ptr %5 to i64
  %9 = ptrtoint ptr %7 to i64
  %10 = sub i64 %8, %9
  %11 = icmp ult i64 %10, 3
  br i1 %11, label %12, label %14

12:                                               ; preds = %2
  %13 = tail call noundef nonnull align 8 dereferenceable(48) ptr @_ZN4llvm11raw_ostream5writeEPKcm(ptr noundef nonnull align 8 dereferenceable(48) %3, ptr noundef nonnull @.str.23, i64 noundef 3) #22
  br label %_ZN4llvm11raw_ostreamlsEPKc.exit

14:                                               ; preds = %2
  tail call void @llvm.memcpy.p0.p0.i64(ptr noundef nonnull align 1 dereferenceable(3) %7, ptr noundef nonnull align 1 dereferenceable(3) @.str.23, i64 3, i1 false)
  %15 = load ptr, ptr %6, align 8
  %16 = getelementptr inbounds nuw i8, ptr %15, i64 3
  store ptr %16, ptr %6, align 8
  br label %_ZN4llvm11raw_ostreamlsEPKc.exit

_ZN4llvm11raw_ostreamlsEPKc.exit:                 ; preds = %12, %14
  %.0.i.i = phi ptr [ %13, %12 ], [ %3, %14 ]
  %17 = getelementptr inbounds nuw i8, ptr %1, i64 16
  %18 = load i32, ptr %17, align 4
  %19 = tail call noundef ptr @_ZN5clang29getOpenMPSimpleClauseTypeNameEN4llvm3omp6ClauseEj(i32 noundef 10, i32 noundef %18) #22
  %.not.i.i = icmp eq ptr %19, null
  br i1 %.not.i.i, label %_ZN4llvm11raw_ostreamlsEPKc.exit4, label %_ZN4llvm9StringRefC2EPKc.exit.i

_ZN4llvm9StringRefC2EPKc.exit.i:                  ; preds = %_ZN4llvm11raw_ostreamlsEPKc.exit
  %20 = tail call noundef i64 @strlen(ptr noundef nonnull dereferenceable(1) %19) #22
  %21 = getelementptr inbounds nuw i8, ptr %.0.i.i, i64 24
  %22 = load ptr, ptr %21, align 8
  %23 = getelementptr inbounds nuw i8, ptr %.0.i.i, i64 32
  %24 = load ptr, ptr %23, align 8
  %25 = ptrtoint ptr %22 to i64
  %26 = ptrtoint ptr %24 to i64
  %27 = sub i64 %25, %26
  %28 = icmp ugt i64 %20, %27
  br i1 %28, label %29, label %31

29:                                               ; preds = %_ZN4llvm9StringRefC2EPKc.exit.i
  %30 = tail call noundef nonnull align 8 dereferenceable(48) ptr @_ZN4llvm11raw_ostream5writeEPKcm(ptr noundef nonnull align 8 dereferenceable(48) %.0.i.i, ptr noundef nonnull %19, i64 noundef %20) #22
  br label %_ZN4llvm11raw_ostreamlsEPKc.exit4

31:                                               ; preds = %_ZN4llvm9StringRefC2EPKc.exit.i
  %.not.i2.i2 = icmp eq i64 %20, 0
  br i1 %.not.i2.i2, label %_ZN4llvm11raw_ostreamlsEPKc.exit4, label %32

32:                                               ; preds = %31
  tail call void @llvm.memcpy.p0.p0.i64(ptr align 1 %24, ptr nonnull align 1 %19, i64 %20, i1 false)
  %33 = load ptr, ptr %23, align 8
  %34 = getelementptr inbounds i8, ptr %33, i64 %20
  store ptr %34, ptr %23, align 8
  br label %_ZN4llvm11raw_ostreamlsEPKc.exit4

_ZN4llvm11raw_ostreamlsEPKc.exit4:                ; preds = %_ZN4llvm11raw_ostreamlsEPKc.exit, %29, %31, %32
  %.0.i.i3 = phi ptr [ %30, %29 ], [ %.0.i.i, %32 ], [ %.0.i.i, %31 ], [ %.0.i.i, %_ZN4llvm11raw_ostreamlsEPKc.exit ]
  %35 = getelementptr inbounds nuw i8, ptr %.0.i.i3, i64 24
  %36 = load ptr, ptr %35, align 8
  %37 = getelementptr inbounds nuw i8, ptr %.0.i.i3, i64 32
  %38 = load ptr, ptr %37, align 8
  %39 = icmp eq ptr %36, %38
  br i1 %39, label %40, label %42

40:                                               ; preds = %_ZN4llvm11raw_ostreamlsEPKc.exit4
  %41 = tail call noundef nonnull align 8 dereferenceable(48) ptr @_ZN4llvm11raw_ostream5writeEPKcm(ptr noundef nonnull align 8 dereferenceable(48) %.0.i.i3, ptr noundef nonnull @.str.3, i64 noundef 1) #22
  br label %_ZN4llvm11raw_ostreamlsEPKc.exit8

42:                                               ; preds = %_ZN4llvm11raw_ostreamlsEPKc.exit4
  store i8 41, ptr %38, align 1
  %43 = load ptr, ptr %37, align 8
  %44 = getelementptr inbounds nuw i8, ptr %43, i64 1
  store ptr %44, ptr %37, align 8
  br label %_ZN4llvm11raw_ostreamlsEPKc.exit8

_ZN4llvm11raw_ostreamlsEPKc.exit8:                ; preds = %40, %42
  ret void
}